; Function Attrs: nounwind uwtable
define zeroext range(i8 0, 2) i8 @l_Int_Linear_norm__dvd__gcd__cert(ptr noundef %0, ptr noundef %1, ptr noundef %2, ptr noundef %3, ptr noundef %4) local_unnamed_addr #1 {
  %6 = load ptr, ptr @l_Int_Linear_Poly_denote_x27_go___closed__1, align 8, !tbaa !11
  %7 = load ptr, ptr @l_Int_Linear_Expr_toPoly_x27___closed__1, align 8, !tbaa !11
  %8 = tail call ptr @l_Int_Linear_Expr_toPoly_x27_go(ptr noundef %6, ptr noundef %1, ptr noundef %7)
  %9 = tail call ptr @l_Int_Linear_Poly_norm(ptr noundef %8)
  %10 = tail call zeroext i8 @l_Int_Linear_dvd__coeff__cert(ptr noundef %0, ptr noundef %9, ptr noundef %2, ptr noundef %3, ptr noundef %4)
  %11 = ptrtoint ptr %9 to i64
  %12 = and i64 %11, 1
  %.not = icmp eq i64 %12, 0
  br i1 %.not, label %13, label %lean_dec.exit

13:                                               ; preds = %5
  %14 = load i32, ptr %9, align 4, !tbaa !6
  %15 = icmp sgt i32 %14, 1
  br i1 %15, label %16, label %18, !prof !5

16:                                               ; preds = %13
  %17 = add nsw i32 %14, -1
  store i32 %17, ptr %9, align 4, !tbaa !6
  br label %lean_dec.exit

18:                                               ; preds = %13
  %.not.i = icmp eq i32 %14, 0
  br i1 %.not.i, label %lean_dec.exit, label %19

19:                                               ; preds = %18
  tail call void @lean_dec_ref_cold(ptr noundef nonnull %9) #5
  br label %lean_dec.exit

lean_dec.exit:                                    ; preds = %19, %18, %16, %5
  ret i8 %10
}